Certificate:
    Data:
        Version: 3 (0x2)
        Serial Number:
            6d:89:8a:2f:e8:ee:46:a4:dc:59:ff:67:e0:1b:ea:fb:51:60:df:2d
        Signature Algorithm: ecdsa-with-SHA384
        Issuer: O = sigstore.dev, CN = sigstore-intermediate
        Validity
            Not Before: Aug 29 09:00:31 2022 GMT
            Not After : Aug 29 09:10:31 2022 GMT
        Subject: 
        Subject Public Key Info:
            Public Key Algorithm: id-ecPublicKey
                Public-Key: (256 bit)
                pub:
                    04:31:89:29:38:26:e5:4c:74:03:a8:e9:23:c7:7a:
                    43:67:90:6d:1d:f1:4e:15:00:73:fa:6a:f2:c6:39:
                    71:e2:ba:25:88:c3:3f:4e:0c:df:52:14:47:90:73:
                    80:43:60:bf:70:68:38:a4:77:54:c9:d6:e8:22:0d:
                    1f:b3:e7:51:d7
                ASN1 OID: prime256v1
                NIST CURVE: P-256
        X509v3 extensions:
            X509v3 Key Usage: critical
                Digital Signature
            X509v3 Extended Key Usage: 
                Code Signing
            X509v3 Subject Key Identifier: 
                F6:6C:86:7C:D6:75:F8:6D:C8:B3:EF:EB:AD:78:79:2F:C0:99:9C:DB
            X509v3 Authority Key Identifier: 
                keyid:DF:D3:E9:CF:56:24:11:96:F9:A8:D8:E9:28:55:A2:C6:2E:18:64:3F

            X509v3 Subject Alternative Name: critical
                email:daniel.bevenius@gmail.com
            1.3.6.1.4.1.57264.1.1: 
                https://github.com/login/oauth
            CT Precertificate SCTs: 
                Signed Certificate Timestamp:
                    Version   : v1 (0x0)
                    Log ID    : 08:60:92:F0:28:52:FF:68:45:D1:D1:6B:27:84:9C:45:
                                67:18:AC:16:3D:C3:38:D2:6D:E6:BC:22:06:36:6F:72
                    Timestamp : Aug 29 09:00:31.903 2022 GMT
                    Extensions: none
                    Signature : ecdsa-with-SHA256
                                30:45:02:21:00:FA:28:5C:16:36:93:36:E7:FD:87:D4:
                                14:CB:95:FC:56:4B:3D:13:D0:42:87:F6:97:C4:11:07:
                                4C:3E:D0:FA:F5:02:20:5C:A7:ED:B7:DC:4F:EB:B0:22:
                                04:9F:31:79:CC:B4:F1:91:9E:22:9C:36:9E:72:2E:DC:
                                EE:FE:3E:D5:FA:36:61
    Signature Algorithm: ecdsa-with-SHA384
         30:64:02:30:10:4d:ec:55:35:d6:e0:f5:72:7e:6d:25:ce:f5:
         60:4e:68:ab:48:b2:b6:b1:f7:66:c3:b9:0d:84:95:15:f5:bd:
         d2:31:1c:3b:9e:d3:fc:4c:82:38:e9:15:e9:1d:3a:d5:02:30:
         66:e8:14:e1:eb:5d:c6:78:fb:32:c0:6e:4a:0b:62:f6:57:44:
         1e:ff:4f:a3:b7:60:67:07:8f:37:ae:93:27:5a:bb:a1:89:2a:
         9c:01:5b:6e:40:ec:89:3d:52:49:e2:3c
-----BEGIN CERTIFICATE-----
MIICpzCCAi6gAwIBAgIUbYmKL+juRqTcWf9n4Bvq+1Fg3y0wCgYIKoZIzj0EAwMw
NzEVMBMGA1UEChMMc2lnc3RvcmUuZGV2MR4wHAYDVQQDExVzaWdzdG9yZS1pbnRl
cm1lZGlhdGUwHhcNMjIwODI5MDkwMDMxWhcNMjIwODI5MDkxMDMxWjAAMFkwEwYH
KoZIzj0CAQYIKoZIzj0DAQcDQgAEMYkpOCblTHQDqOkjx3pDZ5BtHfFOFQBz+mry
xjlx4roliMM/TgzfUhRHkHOAQ2C/cGg4pHdUydboIg0fs+dR16OCAU0wggFJMA4G
A1UdDwEB/wQEAwIHgDATBgNVHSUEDDAKBggrBgEFBQcDAzAdBgNVHQ4EFgQU9myG
fNZ1+G3Is+/rrXh5L8CZnNswHwYDVR0jBBgwFoAU39Ppz1YkEZb5qNjpKFWixi4Y
ZD8wJwYDVR0RAQH/BB0wG4EZZGFuaWVsLmJldmVuaXVzQGdtYWlsLmNvbTAsBgor
BgEEAYO/MAEBBB5odHRwczovL2dpdGh1Yi5jb20vbG9naW4vb2F1dGgwgYoGCisG
AQQB1nkCBAIEfAR6AHgAdgAIYJLwKFL/aEXR0WsnhJxFZxisFj3DONJt5rwiBjZv
cgAAAYLo1LsfAAAEAwBHMEUCIQD6KFwWNpM25/2H1BTLlfxWSz0T0EKH9pfEEQdM
PtD69QIgXKftt9xP67AiBJ8xecy08ZGeIpw2nnIu3O7+PtX6NmEwCgYIKoZIzj0E
AwMDZwAwZAIwEE3sVTXW4PVyfm0lzvVgTmirSLK2sfdmw7kNhJUV9b3SMRw7ntP8
TII46RXpHTrVAjBm6BTh613GePsywG5KC2L2V0Qe/0+jt2BnB483rpMnWruhiSqc
AVtuQOyJPVJJ4jw=
-----END CERTIFICATE-----
